; Function Attrs: nounwind sspstrong uwtable
define internal noundef i64 @rb_io_putc(i64 noundef %0, i64 noundef returned %1) #0 {
  %3 = alloca i64, align 8
  %4 = alloca i8, align 1
  %5 = icmp eq i64 %1, 0
  %6 = and i64 %1, 7
  %7 = icmp ne i64 %6, 0
  %8 = or i1 %5, %7
  br i1 %8, label %rbimpl_RB_TYPE_P_fastpath.exit.thread.i, label %rbimpl_RB_TYPE_P_fastpath.exit

rbimpl_RB_TYPE_P_fastpath.exit:                   ; preds = %2
  %9 = inttoptr i64 %1 to ptr
  %10 = load i64, ptr %9, align 8, !tbaa !25
  %11 = and i64 %10, 31
  %12 = icmp eq i64 %11, 5
  br i1 %12, label %13, label %rbimpl_RB_TYPE_P_fastpath.exit.thread.i

13:                                               ; preds = %rbimpl_RB_TYPE_P_fastpath.exit
  %14 = tail call i64 @rb_str_substr(i64 noundef %1, i64 noundef 0, i64 noundef 1) #28
  br label %22

rbimpl_RB_TYPE_P_fastpath.exit.thread.i:          ; preds = %rbimpl_RB_TYPE_P_fastpath.exit, %2
  call void @llvm.lifetime.start.p0(i64 1, ptr nonnull %4) #28
  %15 = and i64 %1, 1
  %.not.i.i = icmp eq i64 %15, 0
  br i1 %.not.i.i, label %18, label %16

16:                                               ; preds = %rbimpl_RB_TYPE_P_fastpath.exit.thread.i
  %17 = tail call i64 @rb_fix2int(i64 noundef %1) #28
  br label %rb_num2char_inline.exit

18:                                               ; preds = %rbimpl_RB_TYPE_P_fastpath.exit.thread.i
  %19 = tail call i64 @rb_num2int(i64 noundef %1) #28
  br label %rb_num2char_inline.exit

rb_num2char_inline.exit:                          ; preds = %16, %18
  %.0.i5.i = phi i64 [ %17, %16 ], [ %19, %18 ]
  %20 = trunc i64 %.0.i5.i to i8
  store i8 %20, ptr %4, align 1, !tbaa !76
  %21 = call i64 @rb_str_new(ptr noundef nonnull %4, i64 noundef 1) #28
  call void @llvm.lifetime.end.p0(i64 1, ptr nonnull %4) #28
  br label %22

22:                                               ; preds = %rb_num2char_inline.exit, %13
  %.0 = phi i64 [ %14, %13 ], [ %21, %rb_num2char_inline.exit ]
  call void @llvm.lifetime.start.p0(i64 8, ptr nonnull %3)
  store i64 %.0, ptr %3, align 8, !tbaa !23
  %23 = load i64, ptr @id_write, align 8, !tbaa !23
  %24 = call i64 @rb_funcallv(i64 noundef %0, i64 noundef %23, i32 noundef 1, ptr noundef nonnull %3) #28
  call void @llvm.lifetime.end.p0(i64 8, ptr nonnull %3)
  ret i64 %1
}